; Function Attrs: mustprogress uwtable
define void @_ZN3nix16deleteGenerationERKNSt7__cxx1112basic_stringIcSt11char_traitsIcESaIcEEEm(ptr noundef nonnull align 8 dereferenceable(32) %0, i64 noundef %1) local_unnamed_addr #5 personality ptr @__gxx_personality_v0 {
  %3 = alloca %"class.std::__cxx11::basic_string", align 8
  call fastcc void @_ZN3nixL8makeNameERKNSt7__cxx1112basic_stringIcSt11char_traitsIcESaIcEEEm(ptr dead_on_unwind noalias nonnull writable align 8 %3, ptr noundef nonnull align 8 dereferenceable(32) %0, i64 noundef %1)
  %4 = load ptr, ptr %3, align 8
  %5 = call i32 @remove(ptr noundef %4) #25
  %6 = icmp eq i32 %5, -1
  br i1 %6, label %7, label %_ZN3nixL10removeFileERKNSt7__cxx1112basic_stringIcSt11char_traitsIcESaIcEEE.exit

7:                                                ; preds = %2
  %8 = call ptr @__cxa_allocate_exception(i64 384) #25
  %9 = tail call ptr @__errno_location() #29
  %10 = load i32, ptr %9, align 4
  invoke void @_ZN3nix8SysErrorC2IJA20_cNSt7__cxx1112basic_stringIcSt11char_traitsIcESaIcEEEEEEiDpRKT_(ptr noundef nonnull align 8 dereferenceable(380) %8, i32 noundef %10, ptr noundef nonnull align 1 dereferenceable(20) @.str.45, ptr noundef nonnull align 8 dereferenceable(32) %3)
          to label %_ZN3nix8SysErrorC2IJA20_cNSt7__cxx1112basic_stringIcSt11char_traitsIcESaIcEEEEEEDpRKT_.exit unwind label %11

_ZN3nix8SysErrorC2IJA20_cNSt7__cxx1112basic_stringIcSt11char_traitsIcESaIcEEEEEEDpRKT_.exit: ; preds = %7
  invoke void @__cxa_throw(ptr nonnull %8, ptr nonnull @_ZTIN3nix8SysErrorE, ptr nonnull @_ZN3nix8SysErrorD2Ev) #26
          to label %.noexc unwind label %19

.noexc:                                           ; preds = %_ZN3nix8SysErrorC2IJA20_cNSt7__cxx1112basic_stringIcSt11char_traitsIcESaIcEEEEEEDpRKT_.exit
  unreachable

11:                                               ; preds = %7
  %12 = landingpad { ptr, i32 }
          cleanup
  call void @__cxa_free_exception(ptr %8) #25
  br label %.body

_ZN3nixL10removeFileERKNSt7__cxx1112basic_stringIcSt11char_traitsIcESaIcEEE.exit: ; preds = %2
  %13 = load ptr, ptr %3, align 8
  %14 = getelementptr inbounds i8, ptr %3, i64 16
  %15 = icmp eq ptr %13, %14
  br i1 %15, label %_ZNKSt7__cxx1112basic_stringIcSt11char_traitsIcESaIcEE11_M_is_localEv.exit.thread.i.i, label %_ZNKSt7__cxx1112basic_stringIcSt11char_traitsIcESaIcEE11_M_is_localEv.exit.i.i

_ZNKSt7__cxx1112basic_stringIcSt11char_traitsIcESaIcEE11_M_is_localEv.exit.thread.i.i: ; preds = %_ZN3nixL10removeFileERKNSt7__cxx1112basic_stringIcSt11char_traitsIcESaIcEEE.exit
  %16 = getelementptr inbounds i8, ptr %3, i64 8
  %17 = load i64, ptr %16, align 8
  %18 = icmp ult i64 %17, 16
  call void @llvm.assume(i1 %18)
  br label %_ZNSt7__cxx1112basic_stringIcSt11char_traitsIcESaIcEED2Ev.exit

_ZNKSt7__cxx1112basic_stringIcSt11char_traitsIcESaIcEE11_M_is_localEv.exit.i.i: ; preds = %_ZN3nixL10removeFileERKNSt7__cxx1112basic_stringIcSt11char_traitsIcESaIcEEE.exit
  call void @_ZdlPv(ptr noundef %13) #28
  br label %_ZNSt7__cxx1112basic_stringIcSt11char_traitsIcESaIcEED2Ev.exit

_ZNSt7__cxx1112basic_stringIcSt11char_traitsIcESaIcEED2Ev.exit: ; preds = %_ZNKSt7__cxx1112basic_stringIcSt11char_traitsIcESaIcEE11_M_is_localEv.exit.thread.i.i, %_ZNKSt7__cxx1112basic_stringIcSt11char_traitsIcESaIcEE11_M_is_localEv.exit.i.i
  call void @_ZNSaIcED2Ev(ptr noundef nonnull align 1 dereferenceable(1) %3) #25
  ret void

19:                                               ; preds = %_ZN3nix8SysErrorC2IJA20_cNSt7__cxx1112basic_stringIcSt11char_traitsIcESaIcEEEEEEDpRKT_.exit
  %20 = landingpad { ptr, i32 }
          cleanup
  br label %.body

.body:                                            ; preds = %11, %19
  %eh.lpad-body = phi { ptr, i32 } [ %20, %19 ], [ %12, %11 ]
  call void @_ZNSt7__cxx1112basic_stringIcSt11char_traitsIcESaIcEED2Ev(ptr noundef nonnull align 8 dereferenceable(32) %3) #25
  resume { ptr, i32 } %eh.lpad-body
}